; Function Attrs: mustprogress uwtable
define internal fastcc void @_ZN7doctest12_GLOBAL__N_115ConsoleReporter19separator_to_streamEv(ptr %.8.val) unnamed_addr #8 align 2 {
  %1 = load i8, ptr @_ZN7doctest6detail11g_no_colorsE, align 1, !tbaa !10, !range !22, !noundef !23
  %2 = trunc nuw i8 %1 to i1
  br i1 %2, label %_ZN7doctest5ColorlsERSoNS0_4EnumE.exit, label %3

3:                                                ; preds = %0
  %4 = tail call i32 @isatty(i32 noundef 1) #49
  %5 = icmp eq i32 %4, 0
  br i1 %5, label %6, label %11

6:                                                ; preds = %3
  %7 = load ptr, ptr @_ZN7doctest6detail4g_csE, align 8, !tbaa !73
  %8 = getelementptr inbounds nuw i8, ptr %7, i64 120
  %9 = load i8, ptr %8, align 8, !tbaa !75, !range !22, !noundef !23
  %10 = icmp eq i8 %9, 0
  br i1 %10, label %_ZN7doctest5ColorlsERSoNS0_4EnumE.exit, label %11

11:                                               ; preds = %6, %3
  %12 = tail call noundef nonnull align 8 dereferenceable(8) ptr @_ZSt16__ostream_insertIcSt11char_traitsIcEERSt13basic_ostreamIT_T0_ES6_PKS3_l(ptr noundef nonnull align 8 dereferenceable(8) %.8.val, ptr noundef nonnull @.str.222, i64 noundef 1)
  %13 = tail call noundef nonnull align 8 dereferenceable(8) ptr @_ZSt16__ostream_insertIcSt11char_traitsIcEERSt13basic_ostreamIT_T0_ES6_PKS3_l(ptr noundef nonnull align 8 dereferenceable(8) %.8.val, ptr noundef nonnull @.str.215, i64 noundef 6)
  br label %_ZN7doctest5ColorlsERSoNS0_4EnumE.exit

_ZN7doctest5ColorlsERSoNS0_4EnumE.exit:           ; preds = %0, %6, %11
  %14 = tail call noundef nonnull align 8 dereferenceable(8) ptr @_ZSt16__ostream_insertIcSt11char_traitsIcEERSt13basic_ostreamIT_T0_ES6_PKS3_l(ptr noundef nonnull align 8 dereferenceable(8) %.8.val, ptr noundef nonnull @.str.450, i64 noundef 80)
  ret void
}